; Function Attrs: mustprogress uwtable
define dso_local void @_ZNK3Lhs6OutputERSo(ptr noundef nonnull readonly align 8 captures(none) dereferenceable(41) %0, ptr noundef nonnull align 8 dereferenceable(8) %1) unnamed_addr #3 align 2 personality ptr @__gxx_personality_v0 {
  %3 = alloca %class.ExpressionVariable, align 8
  call void @llvm.lifetime.start.p0(i64 40, ptr nonnull %3) #16
  %4 = getelementptr inbounds nuw i8, ptr %0, i64 24
  %5 = load ptr, ptr %4, align 8, !tbaa !97
  %6 = getelementptr inbounds nuw i8, ptr %0, i64 32
  %7 = load ptr, ptr %6, align 8, !tbaa !92
  call void @_ZN18ExpressionVariableC1ERK8VariablePK4Type(ptr noundef nonnull align 8 dereferenceable(40) %3, ptr noundef nonnull align 8 dereferenceable(200) %5, ptr noundef %7)
  %8 = load ptr, ptr %4, align 8, !tbaa !97
  %9 = invoke noundef zeroext i1 @_ZNK8Variable11is_volatileEv(ptr noundef nonnull align 8 dereferenceable(200) %8)
          to label %10 unwind label %21

10:                                               ; preds = %2
  br i1 %9, label %11, label %23

11:                                               ; preds = %10
  %12 = invoke noundef zeroext i1 @_ZN9CGOptions14wrap_volatilesEv()
          to label %13 unwind label %21

13:                                               ; preds = %11
  br i1 %12, label %14, label %23

14:                                               ; preds = %13
  %15 = invoke noundef nonnull align 8 dereferenceable(8) ptr @_ZSt16__ostream_insertIcSt11char_traitsIcEERSt13basic_ostreamIT_T0_ES6_PKS3_l(ptr noundef nonnull align 8 dereferenceable(8) %1, ptr noundef nonnull @.str, i64 noundef 9)
          to label %_ZStlsISt11char_traitsIcEERSt13basic_ostreamIcT_ES5_PKc.exit unwind label %21

_ZStlsISt11char_traitsIcEERSt13basic_ostreamIcT_ES5_PKc.exit: ; preds = %14
  invoke void @_ZNK18ExpressionVariable6OutputERSo(ptr noundef nonnull align 8 dereferenceable(40) %3, ptr noundef nonnull align 8 dereferenceable(8) %1)
          to label %16 unwind label %21

16:                                               ; preds = %_ZStlsISt11char_traitsIcEERSt13basic_ostreamIcT_ES5_PKc.exit
  %17 = invoke noundef nonnull align 8 dereferenceable(8) ptr @_ZSt16__ostream_insertIcSt11char_traitsIcEERSt13basic_ostreamIT_T0_ES6_PKS3_l(ptr noundef nonnull align 8 dereferenceable(8) %1, ptr noundef nonnull @.str.1, i64 noundef 2)
          to label %_ZStlsISt11char_traitsIcEERSt13basic_ostreamIcT_ES5_PKc.exit8 unwind label %21

_ZStlsISt11char_traitsIcEERSt13basic_ostreamIcT_ES5_PKc.exit8: ; preds = %16
  %18 = load ptr, ptr %6, align 8, !tbaa !92
  invoke void @_ZNK4Type6OutputERSo(ptr noundef nonnull align 8 dereferenceable(136) %18, ptr noundef nonnull align 8 dereferenceable(8) %1)
          to label %19 unwind label %21

19:                                               ; preds = %_ZStlsISt11char_traitsIcEERSt13basic_ostreamIcT_ES5_PKc.exit8
  %20 = invoke noundef nonnull align 8 dereferenceable(8) ptr @_ZSt16__ostream_insertIcSt11char_traitsIcEERSt13basic_ostreamIT_T0_ES6_PKS3_l(ptr noundef nonnull align 8 dereferenceable(8) %1, ptr noundef nonnull @.str.2, i64 noundef 1)
          to label %_ZStlsISt11char_traitsIcEERSt13basic_ostreamIcT_ES5_PKc.exit9 unwind label %21

21:                                               ; preds = %19, %16, %14, %23, %_ZStlsISt11char_traitsIcEERSt13basic_ostreamIcT_ES5_PKc.exit8, %_ZStlsISt11char_traitsIcEERSt13basic_ostreamIcT_ES5_PKc.exit, %11, %2
  %22 = landingpad { ptr, i32 }
          cleanup
  call void @_ZN18ExpressionVariableD1Ev(ptr noundef nonnull align 8 dereferenceable(40) %3) #16
  call void @llvm.lifetime.end.p0(i64 40, ptr nonnull %3) #16
  resume { ptr, i32 } %22

23:                                               ; preds = %13, %10
  invoke void @_ZNK18ExpressionVariable6OutputERSo(ptr noundef nonnull align 8 dereferenceable(40) %3, ptr noundef nonnull align 8 dereferenceable(8) %1)
          to label %_ZStlsISt11char_traitsIcEERSt13basic_ostreamIcT_ES5_PKc.exit9 unwind label %21

_ZStlsISt11char_traitsIcEERSt13basic_ostreamIcT_ES5_PKc.exit9: ; preds = %19, %23
  call void @_ZN18ExpressionVariableD1Ev(ptr noundef nonnull align 8 dereferenceable(40) %3) #16
  call void @llvm.lifetime.end.p0(i64 40, ptr nonnull %3) #16
  ret void
}